Certificate:
    Data:
        Version: 3 (0x2)
        Serial Number: 271 (0x10f)
        Signature Algorithm: md5WithRSAEncryption
        Issuer: CN=OTG3 Certificate Authority, C=US, ST=California, L=Redwood City, O=Electronic Arts, Inc., OU=Online Technology Group/emailAddress=dirtysock-contact@ea.com
        Validity
            Not Before: May  1 19:36:28 2009 GMT
            Not After : Apr 30 19:36:28 2014 GMT
        Subject: C=US, ST=California, O=Electronic Arts, Inc., OU=Online Technology Group, CN=contact.gos-ops.for.a.custom.ssl.cert.for.this.server
        Subject Public Key Info:
            Public Key Algorithm: rsaEncryption
            RSA Public Key: (1024 bit)
                Modulus (1024 bit):
                    00:c2:0c:97:e0:50:c5:a1:23:d6:02:a5:b4:b6:ec:
                    84:75:96:8d:2c:bc:ad:1a:ab:58:84:42:d9:75:71:
                    e7:0c:86:fa:3d:82:59:b5:ec:6e:2c:31:7a:37:b3:
                    d0:80:28:ca:5e:ca:8d:87:1d:30:18:d7:43:be:c4:
                    74:86:9b:60:10:f4:45:cb:43:c1:c4:5f:28:6d:5e:
                    a0:e7:93:4b:94:1d:e2:5a:9d:d3:68:99:8d:e1:19:
                    c0:00:99:bb:c5:e1:89:3c:0f:f4:8c:52:fa:e1:a8:
                    8d:de:6a:f7:5a:9d:5d:cc:96:e9:db:64:de:20:09:
                    be:3e:2d:68:36:03:a4:38:2d
                Exponent: 3 (0x3)
        X509v3 extensions:
            X509v3 Basic Constraints: 
            CA:FALSE
            X509v3 Subject Key Identifier: 
            EE:8F:11:06:27:13:64:9B:55:4D:78:85:E4:7E:F9:4B:01:B4:47:8C
            X509v3 Authority Key Identifier: 
            keyid:EC:0D:0F:93:D0:C8:0B:6E:CE:63:A9:8E:32:DF:73:9D:4F:AD:C7:C5
            DirName:/CN=OTG3 Certificate Authority/C=US/ST=California/L=Redwood City/O=Electronic Arts, Inc./OU=Online Technology Group/emailAddress=dirtysock-contact@ea.com
            serial:00

    Signature Algorithm: md5WithRSAEncryption
        73:77:9e:18:1e:10:cd:e7:6b:e5:e1:22:d3:07:a3:8b:a2:e0:
        ef:c2:54:5c:51:f3:d3:e6:01:bf:21:71:61:88:de:ae:83:55:
        0c:2b:7e:a6:23:e2:eb:a0:64:07:d2:b4:04:7a:26:49:2a:3a:
        23:d5:93:46:4c:06:0e:15:6f:4f:76:97:d9:1a:e3:5b:d4:4a:
        b8:b5:7e:1b:76:e2:55:2b:7a:f9:27:66:a6:dc:65:ca:18:29:
        83:2f:44:2c:83:dc:73:82:30:26:ca:32:3f:ed:b7:af:6f:8c:
        6a:80:ad:e7:da:6e:17:d7:c9:7e:cc:92:a8:ae:f5:6c:61:a7:
        59:63
-----BEGIN CERTIFICATE-----
MIIEDTCCA3agAwIBAgICAQ8wDQYJKoZIhvcNAQEEBQAwgckxIzAhBgNVBAMTGk9U
RzMgQ2VydGlmaWNhdGUgQXV0aG9yaXR5MQswCQYDVQQGEwJVUzETMBEGA1UECBMK
Q2FsaWZvcm5pYTEVMBMGA1UEBxMMUmVkd29vZCBDaXR5MR4wHAYDVQQKExVFbGVj
dHJvbmljIEFydHMsIEluYy4xIDAeBgNVBAsTF09ubGluZSBUZWNobm9sb2d5IEdy
b3VwMScwJQYJKoZIhvcNAQkBFhhkaXJ0eXNvY2stY29udGFjdEBlYS5jb20wHhcN
MDkwNTAxMTkzNjI4WhcNMTQwNDMwMTkzNjI4WjCBpDELMAkGA1UEBhMCVVMxEzAR
BgNVBAgTCkNhbGlmb3JuaWExHjAcBgNVBAoTFUVsZWN0cm9uaWMgQXJ0cywgSW5j
LjEgMB4GA1UECxMXT25saW5lIFRlY2hub2xvZ3kgR3JvdXAxPjA8BgNVBAMTNWNv
bnRhY3QuZ29zLW9wcy5mb3IuYS5jdXN0b20uc3NsLmNlcnQuZm9yLnRoaXMuc2Vy
dmVyMIGdMA0GCSqGSIb3DQEBAQUAA4GLADCBhwKBgQDCDJfgUMWhI9YCpbS27IR1
lo0svK0aq1iEQtl1cecMhvo9glm17G4sMXo3s9CAKMpeyo2HHTAY10O+xHSGm2AQ
9EXLQ8HEXyhtXqDnk0uUHeJandNomY3hGcAAmbvF4Yk8D/SMUvrhqI3eavdanV3M
lunbZN4gCb4+LWg2A6Q4LQIBA6OCAScwggEjMAkGA1UdEwQCMAAwHQYDVR0OBBYE
FO6PEQYnE2SbVU14heR++UsBtEeMMIH2BgNVHSMEge4wgeuAFOwND5PQyAtuzmOp
jjLfc51PrcfFoYHPpIHMMIHJMSMwIQYDVQQDExpPVEczIENlcnRpZmljYXRlIEF1
dGhvcml0eTELMAkGA1UEBhMCVVMxEzARBgNVBAgTCkNhbGlmb3JuaWExFTATBgNV
BAcTDFJlZHdvb2QgQ2l0eTEeMBwGA1UEChMVRWxlY3Ryb25pYyBBcnRzLCBJbmMu
MSAwHgYDVQQLExdPbmxpbmUgVGVjaG5vbG9neSBHcm91cDEnMCUGCSqGSIb3DQEJ
ARYYZGlydHlzb2NrLWNvbnRhY3RAZWEuY29tggEAMA0GCSqGSIb3DQEBBAUAA4GB
AHN3nhgeEM3na+XhItMHo4ui4O/CVFxR89PmAb8hcWGI3q6DVQwrfqYj4uugZAfS
tAR6JkkqOiPVk0ZMBg4Vb092l9ka41vUSri1fht24lUrevknZqbcZcoYKYMvRCyD
3HOCMCbKMj/tt69vjGqArefabhfXyX7Mkqiu9Wxhp1lj
-----END CERTIFICATE-----
